target datalayout = "e-m:e-p270:32:32-p271:32:32-p272:64:64-i64:64-i128:128-f80:128-n8:16:32:64-S128"
target triple = "x86_64-pc-linux-gnu"

@.str.3 = private unnamed_addr constant [2 x i8] c"\0A\00", align 1
@.str.4 = private unnamed_addr constant [38 x i8] c"    test_autotb [options] [filename]\0A\00", align 1
@.str.5 = private unnamed_addr constant [76 x i8] c"Automatically create primitive Verilog test benches for all modules in the\0A\00", align 1
@.str.6 = private unnamed_addr constant [74 x i8] c"design. The generated testbenches toggle the input pins of the module in\0A\00", align 1
@.str.7 = private unnamed_addr constant [62 x i8] c"a semi-random manner and dumps the resulting output signals.\0A\00", align 1
@.str.8 = private unnamed_addr constant [72 x i8] c"This can be used to check the synthesis results for simple circuits by\0A\00", align 1
@.str.9 = private unnamed_addr constant [79 x i8] c"comparing the testbench output for the input files and the synthesis results.\0A\00", align 1
@.str.10 = private unnamed_addr constant [76 x i8] c"The backend automatically detects clock signals. Additionally a signal can\0A\00", align 1
@.str.11 = private unnamed_addr constant [70 x i8] c"be forced to be interpreted as clock signal by setting the attribute\0A\00", align 1
@.str.12 = private unnamed_addr constant [30 x i8] c"'gentb_clock' on the signal.\0A\00", align 1
@.str.13 = private unnamed_addr constant [76 x i8] c"The attribute 'gentb_constant' can be used to force a signal to a constant\0A\00", align 1
@.str.14 = private unnamed_addr constant [75 x i8] c"value after initialization. This can e.g. be used to force a reset signal\0A\00", align 1
@.str.15 = private unnamed_addr constant [63 x i8] c"low in order to explore more inner states in a state machine.\0A\00", align 1
@.str.16 = private unnamed_addr constant [77 x i8] c"The attribute 'gentb_skip' can be attached to modules to suppress testbench\0A\00", align 1
@.str.17 = private unnamed_addr constant [13 x i8] c"generation.\0A\00", align 1
@.str.18 = private unnamed_addr constant [14 x i8] c"    -n <int>\0A\00", align 1
@.str.19 = private unnamed_addr constant [73 x i8] c"        number of iterations the test bench should run (default = 1000)\0A\00", align 1
@.str.20 = private unnamed_addr constant [17 x i8] c"    -seed <int>\0A\00", align 1
@.str.21 = private unnamed_addr constant [70 x i8] c"        seed used for pseudo-random number generation (default = 0).\0A\00", align 1
@.str.22 = private unnamed_addr constant [74 x i8] c"        a value of 0 will cause an arbitrary seed to be chosen, based on\0A\00", align 1
@.str.23 = private unnamed_addr constant [34 x i8] c"        the current system time.\0A\00", align 1

; Function Attrs: mustprogress uwtable
define internal void @_ZN12_GLOBAL__N_117TestAutotbBackend4helpEv(ptr noundef nonnull align 8 dereferenceable(136) %0) unnamed_addr #4 align 2 {
  %2 = alloca ptr, align 8
  store ptr %0, ptr %2, align 8
  call void (ptr, ...) @_ZN5Yosys3logEPKcz(ptr noundef @.str.3)
  call void (ptr, ...) @_ZN5Yosys3logEPKcz(ptr noundef @.str.4)
  call void (ptr, ...) @_ZN5Yosys3logEPKcz(ptr noundef @.str.3)
  call void (ptr, ...) @_ZN5Yosys3logEPKcz(ptr noundef @.str.5)
  call void (ptr, ...) @_ZN5Yosys3logEPKcz(ptr noundef @.str.6)
  call void (ptr, ...) @_ZN5Yosys3logEPKcz(ptr noundef @.str.7)
  call void (ptr, ...) @_ZN5Yosys3logEPKcz(ptr noundef @.str.3)
  call void (ptr, ...) @_ZN5Yosys3logEPKcz(ptr noundef @.str.8)
  call void (ptr, ...) @_ZN5Yosys3logEPKcz(ptr noundef @.str.9)
  call void (ptr, ...) @_ZN5Yosys3logEPKcz(ptr noundef @.str.3)
  call void (ptr, ...) @_ZN5Yosys3logEPKcz(ptr noundef @.str.10)
  call void (ptr, ...) @_ZN5Yosys3logEPKcz(ptr noundef @.str.11)
  call void (ptr, ...) @_ZN5Yosys3logEPKcz(ptr noundef @.str.12)
  call void (ptr, ...) @_ZN5Yosys3logEPKcz(ptr noundef @.str.3)
  call void (ptr, ...) @_ZN5Yosys3logEPKcz(ptr noundef @.str.13)
  call void (ptr, ...) @_ZN5Yosys3logEPKcz(ptr noundef @.str.14)
  call void (ptr, ...) @_ZN5Yosys3logEPKcz(ptr noundef @.str.15)
  call void (ptr, ...) @_ZN5Yosys3logEPKcz(ptr noundef @.str.3)
  call void (ptr, ...) @_ZN5Yosys3logEPKcz(ptr noundef @.str.16)
  call void (ptr, ...) @_ZN5Yosys3logEPKcz(ptr noundef @.str.17)
  call void (ptr, ...) @_ZN5Yosys3logEPKcz(ptr noundef @.str.3)
  call void (ptr, ...) @_ZN5Yosys3logEPKcz(ptr noundef @.str.18)
  call void (ptr, ...) @_ZN5Yosys3logEPKcz(ptr noundef @.str.19)
  call void (ptr, ...) @_ZN5Yosys3logEPKcz(ptr noundef @.str.3)
  call void (ptr, ...) @_ZN5Yosys3logEPKcz(ptr noundef @.str.20)
  call void (ptr, ...) @_ZN5Yosys3logEPKcz(ptr noundef @.str.21)
  call void (ptr, ...) @_ZN5Yosys3logEPKcz(ptr noundef @.str.22)
  call void (ptr, ...) @_ZN5Yosys3logEPKcz(ptr noundef @.str.23)
  call void (ptr, ...) @_ZN5Yosys3logEPKcz(ptr noundef @.str.3)
  ret void
}